; Function Attrs: nounwind uwtable
define hidden i32 @EVP_AEAD_CTX_get_rc4_state(ptr noundef %0, ptr noundef %1) local_unnamed_addr #3 {
  %3 = load ptr, ptr %0, align 8, !tbaa !15
  %4 = getelementptr inbounds nuw i8, ptr %3, i64 48
  %5 = load ptr, ptr %4, align 8, !tbaa !24
  %6 = icmp eq ptr %5, null
  br i1 %6, label %9, label %7

7:                                                ; preds = %2
  %8 = tail call i32 %5(ptr noundef nonnull %0, ptr noundef %1) #5
  br label %9

9:                                                ; preds = %2, %7
  %.0 = phi i32 [ %8, %7 ], [ 0, %2 ]
  ret i32 %.0
}